; ModuleID = '2/1076.c'
source_filename = "2/1076.c"
target datalayout = "e-m:e-p270:32:32-p271:32:32-p272:64:64-i64:64-f80:128-n8:16:32:64-S128"
target triple = "x86_64-pc-linux-gnu"

%struct.books = type { i32, [27 x i8] }

@.str = private unnamed_addr constant [3 x i8] c"%d\00", align 1
@.str.1 = private unnamed_addr constant [5 x i8] c"%d%s\00", align 1
@book = common dso_local global [999 x %struct.books] zeroinitializer, align 16
@.str.2 = private unnamed_addr constant [7 x i8] c"%c\0A%d\0A\00", align 1
@.str.3 = private unnamed_addr constant [4 x i8] c"%d\0A\00", align 1

; Function Attrs: noinline nounwind uwtable
define dso_local void @main() #0 {
  %1 = alloca i32, align 4
  %2 = alloca i32, align 4
  %3 = alloca i32, align 4
  %4 = alloca [26 x i32], align 16
  %5 = alloca i32, align 4
  %6 = alloca i32, align 4
  %7 = alloca i8, align 1
  %8 = call i32 (i8*, ...) @__isoc99_scanf(i8* getelementptr inbounds ([3 x i8], [3 x i8]* @.str, i64 0, i64 0), i32* %2)
  store i32 0, i32* %1, align 4
  br label %9

9:                                                ; preds = %24, %0
  %10 = load i32, i32* %1, align 4
  %11 = load i32, i32* %2, align 4
  %12 = icmp slt i32 %10, %11
  br i1 %12, label %13, label %27

13:                                               ; preds = %9
  %14 = load i32, i32* %1, align 4
  %15 = sext i32 %14 to i64
  %16 = getelementptr inbounds [999 x %struct.books], [999 x %struct.books]* @book, i64 0, i64 %15
  %17 = getelementptr inbounds %struct.books, %struct.books* %16, i32 0, i32 0
  %18 = load i32, i32* %1, align 4
  %19 = sext i32 %18 to i64
  %20 = getelementptr inbounds [999 x %struct.books], [999 x %struct.books]* @book, i64 0, i64 %19
  %21 = getelementptr inbounds %struct.books, %struct.books* %20, i32 0, i32 1
  %22 = getelementptr inbounds [27 x i8], [27 x i8]* %21, i64 0, i64 0
  %23 = call i32 (i8*, ...) @__isoc99_scanf(i8* getelementptr inbounds ([5 x i8], [5 x i8]* @.str.1, i64 0, i64 0), i32* %17, i8* %22)
  br label %24

24:                                               ; preds = %13
  %25 = load i32, i32* %1, align 4
  %26 = add nsw i32 %25, 1
  store i32 %26, i32* %1, align 4
  br label %9

27:                                               ; preds = %9
  store i8 65, i8* %7, align 1
  store i32 0, i32* %1, align 4
  br label %28

28:                                               ; preds = %39, %27
  %29 = load i8, i8* %7, align 1
  %30 = sext i8 %29 to i32
  %31 = icmp sle i32 %30, 90
  br i1 %31, label %32, label %44

32:                                               ; preds = %28
  %33 = load i32, i32* %2, align 4
  %34 = load i8, i8* %7, align 1
  %35 = call i32 @f(%struct.books* getelementptr inbounds ([999 x %struct.books], [999 x %struct.books]* @book, i64 0, i64 0), i32 %33, i8 signext %34)
  %36 = load i32, i32* %1, align 4
  %37 = sext i32 %36 to i64
  %38 = getelementptr inbounds [26 x i32], [26 x i32]* %4, i64 0, i64 %37
  store i32 %35, i32* %38, align 4
  br label %39

39:                                               ; preds = %32
  %40 = load i8, i8* %7, align 1
  %41 = add i8 %40, 1
  store i8 %41, i8* %7, align 1
  %42 = load i32, i32* %1, align 4
  %43 = add nsw i32 %42, 1
  store i32 %43, i32* %1, align 4
  br label %28

44:                                               ; preds = %28
  store i32 1, i32* %1, align 4
  %45 = getelementptr inbounds [26 x i32], [26 x i32]* %4, i64 0, i64 0
  %46 = load i32, i32* %45, align 16
  store i32 %46, i32* %6, align 4
  store i32 0, i32* %5, align 4
  br label %47

47:                                               ; preds = %64, %44
  %48 = load i32, i32* %1, align 4
  %49 = icmp slt i32 %48, 26
  br i1 %49, label %50, label %67

50:                                               ; preds = %47
  %51 = load i32, i32* %1, align 4
  %52 = sext i32 %51 to i64
  %53 = getelementptr inbounds [26 x i32], [26 x i32]* %4, i64 0, i64 %52
  %54 = load i32, i32* %53, align 4
  %55 = load i32, i32* %6, align 4
  %56 = icmp sgt i32 %54, %55
  br i1 %56, label %57, label %63

57:                                               ; preds = %50
  %58 = load i32, i32* %1, align 4
  %59 = sext i32 %58 to i64
  %60 = getelementptr inbounds [26 x i32], [26 x i32]* %4, i64 0, i64 %59
  %61 = load i32, i32* %60, align 4
  store i32 %61, i32* %6, align 4
  %62 = load i32, i32* %1, align 4
  store i32 %62, i32* %5, align 4
  br label %63

63:                                               ; preds = %57, %50
  br label %64

64:                                               ; preds = %63
  %65 = load i32, i32* %1, align 4
  %66 = add nsw i32 %65, 1
  store i32 %66, i32* %1, align 4
  br label %47

67:                                               ; preds = %47
  %68 = load i32, i32* %5, align 4
  %69 = add nsw i32 %68, 65
  %70 = load i32, i32* %6, align 4
  %71 = call i32 (i8*, ...) @printf(i8* getelementptr inbounds ([7 x i8], [7 x i8]* @.str.2, i64 0, i64 0), i32 %69, i32 %70)
  store i32 0, i32* %1, align 4
  br label %72

72:                                               ; preds = %113, %67
  %73 = load i32, i32* %1, align 4
  %74 = load i32, i32* %2, align 4
  %75 = icmp slt i32 %73, %74
  br i1 %75, label %76, label %116

76:                                               ; preds = %72
  store i32 0, i32* %3, align 4
  br label %77

77:                                               ; preds = %109, %76
  %78 = load i32, i32* %1, align 4
  %79 = sext i32 %78 to i64
  %80 = getelementptr inbounds [999 x %struct.books], [999 x %struct.books]* @book, i64 0, i64 %79
  %81 = getelementptr inbounds %struct.books, %struct.books* %80, i32 0, i32 1
  %82 = load i32, i32* %3, align 4
  %83 = sext i32 %82 to i64
  %84 = getelementptr inbounds [27 x i8], [27 x i8]* %81, i64 0, i64 %83
  %85 = load i8, i8* %84, align 1
  %86 = sext i8 %85 to i32
  %87 = icmp ne i32 %86, 0
  br i1 %87, label %88, label %112

88:                                               ; preds = %77
  %89 = load i32, i32* %1, align 4
  %90 = sext i32 %89 to i64
  %91 = getelementptr inbounds [999 x %struct.books], [999 x %struct.books]* @book, i64 0, i64 %90
  %92 = getelementptr inbounds %struct.books, %struct.books* %91, i32 0, i32 1
  %93 = load i32, i32* %3, align 4
  %94 = sext i32 %93 to i64
  %95 = getelementptr inbounds [27 x i8], [27 x i8]* %92, i64 0, i64 %94
  %96 = load i8, i8* %95, align 1
  %97 = sext i8 %96 to i32
  %98 = load i32, i32* %5, align 4
  %99 = add nsw i32 %98, 65
  %100 = icmp eq i32 %97, %99
  br i1 %100, label %101, label %108

101:                                              ; preds = %88
  %102 = load i32, i32* %1, align 4
  %103 = sext i32 %102 to i64
  %104 = getelementptr inbounds [999 x %struct.books], [999 x %struct.books]* @book, i64 0, i64 %103
  %105 = getelementptr inbounds %struct.books, %struct.books* %104, i32 0, i32 0
  %106 = load i32, i32* %105, align 16
  %107 = call i32 (i8*, ...) @printf(i8* getelementptr inbounds ([4 x i8], [4 x i8]* @.str.3, i64 0, i64 0), i32 %106)
  br label %112

108:                                              ; preds = %88
  br label %109

109:                                              ; preds = %108
  %110 = load i32, i32* %3, align 4
  %111 = add nsw i32 %110, 1
  store i32 %111, i32* %3, align 4
  br label %77

112:                                              ; preds = %101, %77
  br label %113

113:                                              ; preds = %112
  %114 = load i32, i32* %1, align 4
  %115 = add nsw i32 %114, 1
  store i32 %115, i32* %1, align 4
  br label %72

116:                                              ; preds = %72
  ret void
}

declare dso_local i32 @__isoc99_scanf(i8*, ...) #1

; Function Attrs: noinline nounwind uwtable
define dso_local i32 @f(%struct.books* %0, i32 %1, i8 signext %2) #0 {
  %4 = alloca %struct.books*, align 8
  %5 = alloca i32, align 4
  %6 = alloca i8, align 1
  %7 = alloca i32, align 4
  %8 = alloca i32, align 4
  %9 = alloca i32, align 4
  store %struct.books* %0, %struct.books** %4, align 8
  store i32 %1, i32* %5, align 4
  store i8 %2, i8* %6, align 1
  store i32 0, i32* %7, align 4
  store i32 0, i32* %8, align 4
  br label %10

10:                                               ; preds = %49, %3
  %11 = load i32, i32* %8, align 4
  %12 = load i32, i32* %5, align 4
  %13 = icmp slt i32 %11, %12
  br i1 %13, label %14, label %52

14:                                               ; preds = %10
  store i32 0, i32* %9, align 4
  br label %15

15:                                               ; preds = %45, %14
  %16 = load %struct.books*, %struct.books** %4, align 8
  %17 = load i32, i32* %8, align 4
  %18 = sext i32 %17 to i64
  %19 = getelementptr inbounds %struct.books, %struct.books* %16, i64 %18
  %20 = getelementptr inbounds %struct.books, %struct.books* %19, i32 0, i32 1
  %21 = load i32, i32* %9, align 4
  %22 = sext i32 %21 to i64
  %23 = getelementptr inbounds [27 x i8], [27 x i8]* %20, i64 0, i64 %22
  %24 = load i8, i8* %23, align 1
  %25 = sext i8 %24 to i32
  %26 = icmp ne i32 %25, 0
  br i1 %26, label %27, label %48

27:                                               ; preds = %15
  %28 = load %struct.books*, %struct.books** %4, align 8
  %29 = load i32, i32* %8, align 4
  %30 = sext i32 %29 to i64
  %31 = getelementptr inbounds %struct.books, %struct.books* %28, i64 %30
  %32 = getelementptr inbounds %struct.books, %struct.books* %31, i32 0, i32 1
  %33 = load i32, i32* %9, align 4
  %34 = sext i32 %33 to i64
  %35 = getelementptr inbounds [27 x i8], [27 x i8]* %32, i64 0, i64 %34
  %36 = load i8, i8* %35, align 1
  %37 = sext i8 %36 to i32
  %38 = load i8, i8* %6, align 1
  %39 = sext i8 %38 to i32
  %40 = icmp eq i32 %37, %39
  br i1 %40, label %41, label %44

41:                                               ; preds = %27
  %42 = load i32, i32* %7, align 4
  %43 = add nsw i32 %42, 1
  store i32 %43, i32* %7, align 4
  br label %48

44:                                               ; preds = %27
  br label %45

45:                                               ; preds = %44
  %46 = load i32, i32* %9, align 4
  %47 = add nsw i32 %46, 1
  store i32 %47, i32* %9, align 4
  br label %15

48:                                               ; preds = %41, %15
  br label %49

49:                                               ; preds = %48
  %50 = load i32, i32* %8, align 4
  %51 = add nsw i32 %50, 1
  store i32 %51, i32* %8, align 4
  br label %10

52:                                               ; preds = %10
  %53 = load i32, i32* %7, align 4
  ret i32 %53
}

declare dso_local i32 @printf(i8*, ...) #1


!llvm.module.flags = !{!0}
!llvm.ident = !{!1}

!0 = !{i32 1, !"wchar_size", i32 4}
!1 = !{!"clang version 10.0.0-4ubuntu1 "}
